LIBRARY         rsodbc64-test

EXPORTS
	SQLAllocConnect 
	SQLAllocEnv 
	SQLAllocStmt
	SQLBindCol 
	SQLCancel 
	SQLColAttributes 
	SQLConnect 
	SQLDescribeCol 
	SQLDisconnect 
	SQLError 
	SQLExecDirect 
	SQLExecute 
	SQLFetch 
	SQLFreeConnect 
	SQLFreeEnv 
	SQLFreeStmt 
	SQLGetCursorName 
	SQLNumResultCols 
	SQLPrepare
	SQLRowCount
	SQLSetCursorName
	SQLSetParam
	SQLTransact
	SQLColumns
	SQLDriverConnect
	SQLGetConnectOption 
	SQLGetData 
	SQLGetFunctions 
	SQLGetInfo 
	SQLGetStmtOption 
	SQLGetTypeInfo 
	SQLParamData 
	SQLPutData 
	SQLSetConnectOption 
	SQLSetStmtOption 
	SQLSpecialColumns 
	SQLStatistics 
	SQLTables 
	SQLBrowseConnect 
	SQLColumnPrivileges 
	SQLDescribeParam 
	SQLExtendedFetch 
	SQLForeignKeys 
	SQLMoreResults 
	SQLNativeSql 
	SQLNumParams 
	SQLParamOptions 
	SQLPrimaryKeys 
	SQLProcedureColumns 
	SQLProcedures 
	SQLSetPos 
	SQLSetScrollOptions 
	SQLTablePrivileges 
	SQLBindParameter 
	SQLAllocHandle 
	SQLBindParam 
	SQLCloseCursor 
	SQLColAttribute 
	SQLCopyDesc 
	SQLEndTran 
	SQLFetchScroll 
	SQLFreeHandle 
	SQLGetConnectAttr 
	SQLGetDescField 
	SQLGetDescRec 
	SQLGetDiagField 
	SQLGetDiagRec 
	SQLGetEnvAttr 
	SQLGetStmtAttr 
	SQLSetConnectAttr 
	SQLSetDescField 
	SQLSetDescRec 
	SQLSetEnvAttr 
	SQLSetStmtAttr 
	SQLBulkOperations
	SQLConnectW
	SQLDriverConnectW
	SQLBrowseConnectW
	SQLColAttributeW
	SQLColAttributesW
	SQLDescribeColW
	SQLErrorW
	SQLExecDirectW
	SQLGetConnectAttrW
	SQLGetCursorNameW
	SQLGetDescFieldW
	SQLGetDescRecW
	SQLGetDiagFieldW
	SQLGetDiagRecW
	SQLPrepareW
	SQLSetConnectAttrW
	SQLSetCursorNameW
	SQLSetDescFieldW
	SQLSetStmtAttrW
	SQLGetStmtAttrW
	SQLColumnsW
	SQLGetConnectOptionW
	SQLGetInfoW
	SQLGetTypeInfoW
	SQLSetConnectOptionW
	SQLSpecialColumnsW
	SQLStatisticsW
	SQLTablesW
	SQLColumnPrivilegesW
	SQLForeignKeysW
	SQLNativeSqlW
	SQLPrimaryKeysW
	SQLProcedureColumnsW
	SQLProceduresW
	SQLTablePrivilegesW

EXPORTS
    RS_SQLSetDescField
	initializeLoggingWithGlobalLogVars
	shutdownLogging
	RS_LOG_FATAL_
	RS_LOG_ERROR_
	RS_LOG_WARN_
	RS_LOG_INFO_
	RS_LOG_DEBUG_
	RS_LOG_TRACE_
	RS_STREAM_LOG_TRACE_
	wchar16_to_utf8_char
	wchar16_to_utf8_str
	char_utf8_to_utf16_str
	char_utf8_to_utf16_strlen
	char_utf8_to_utf16_wchar
	wchar32_to_utf8_char
	char_utf8_to_utf32_strlen
	sqlwchar_to_utf8_str
	sqlwchar_to_utf8_char
	utf8_to_sqlwchar_str
	utf8_to_sqlwchar_strlen
	utf8_to_sqlwchar_alloc
	sqlwchar_to_utf8_alloc
	sqlwcsnlen_cap
	sizeofSQLWCHAR
	rsodbcVersion
	rsodbcDependencyVersion
	getVersionedDependencyNames
	getDefaultCTypeFromSQLType
	mapPgTypeToSqlType
	strcasestr
	strcasestrwhole
	stristr
	findSQLClause
	DoesEmbedInDoubleQuotes
	printHexSQLWCHR
	printHexSQLCHAR
	copyStrDataBigLen
	copyWStrDataBigLen
	copyStrDataLargeLen
	copyWBinaryToHexDataBigLen
	isStrConnectAttr
	initializeColumnNames
	getOdbc2ColumnName
	libpqCreateSQLPrimaryKeysCustomizedResultSet
	isStreamingCursorMode
	getMaxRowsForCsc
	getResultSetTypeForCsc
	getResultConcurrencyTypeForCsc
	releasePaStrBuf
	?ValidateURL@IAMUtils@IamSupport@Redshift@@SAXAEBV?$basic_string@DU?$char_traits@D@std@@V?$allocator@D@2@@std@@@Z
	?sqlTypeNameMap@@YAPEADF@Z
	?getColumnSize@RsMetadataAPIHelper@@SAHAEBV?$basic_string@DU?$char_traits@D@std@@V?$allocator@D@2@@std@@FF@Z
	?getBufferLen@RsMetadataAPIHelper@@SAHAEBV?$basic_string@DU?$char_traits@D@std@@V?$allocator@D@2@@std@@FF@Z
	?getDecimalDigit@RsMetadataAPIHelper@@SAFAEBV?$basic_string@DU?$char_traits@D@std@@V?$allocator@D@2@@std@@FF_N@Z
	?typeInfoMap@RsMetadataAPIHelper@@2V?$unordered_map@V?$basic_string@DU?$char_traits@D@std@@V?$allocator@D@2@@std@@UDATA_TYPE_INFO@@U?$hash@V?$basic_string@DU?$char_traits@D@std@@V?$allocator@D@2@@std@@@2@U?$equal_to@V?$basic_string@DU?$char_traits@D@std@@V?$allocator@D@2@@std@@@2@V?$allocator@U?$pair@$$CBV?$basic_string@DU?$char_traits@D@std@@V?$allocator@D@2@@std@@UDATA_TYPE_INFO@@@std@@@2@@std@@B
	?isEmptyString@@YA_NPEAE@Z
	?isNullOrEmptyString@@YA_NPEAE@Z
	?getNullable@RsMetadataAPIHelper@@SAFAEBV?$basic_string@DU?$char_traits@D@std@@V?$allocator@D@2@@std@@@Z
	?getTypeInfoMap@RsMetadataAPIHelper@@SA?BV?$unordered_map@V?$basic_string@DU?$char_traits@D@std@@V?$allocator@D@2@@std@@UDATA_TYPE_INFO@@U?$hash@V?$basic_string@DU?$char_traits@D@std@@V?$allocator@D@2@@std@@@2@U?$equal_to@V?$basic_string@DU?$char_traits@D@std@@V?$allocator@D@2@@std@@@2@V?$allocator@U?$pair@$$CBV?$basic_string@DU?$char_traits@D@std@@V?$allocator@D@2@@std@@UDATA_TYPE_INFO@@@std@@@2@@std@@XZ
	?getTypeInfo@RsMetadataAPIHelper@@SA?AUTypeInfoResult@@AEBV?$basic_string@DU?$char_traits@D@std@@V?$allocator@D@2@@std@@_N@Z
	?getDataTypeNameStruct@RsMetadataAPIHelper@@SA?BUDataTypeName@1@XZ
	?getRedshiftTypeNameStruct@RsMetadataAPIHelper@@SA?BURedshiftTypeName@1@XZ
	?getErrorMessage@RsErrorException@@QEBAPEADXZ
	?GetMicrosoftIdpHost@IAMUtils@IamSupport@Redshift@@SAXAEBV?$basic_string@DU?$char_traits@D@std@@V?$allocator@D@2@@std@@AEAV45@@Z
	zpq_deserialize_compressors
	zpq_serialize_compressors
	zpq_parse_compression_setting
	makeNullTerminatedStr
	??0IAMCredentials@IamSupport@Redshift@@QEAA@AEBV?$basic_string@DU?$char_traits@D@std@@V?$allocator@D@2@@std@@00@Z
	??1IAMCredentials@IamSupport@Redshift@@UEAA@XZ
	??0IAMConfiguration@IamSupport@Redshift@@QEAA@AEBVIAMCredentials@12@@Z
	??1IAMConfiguration@IamSupport@Redshift@@QEAA@XZ
	??0BrowserIdcAuthPlugin@IamSupport@Redshift@@QEAA@AEBVIAMConfiguration@12@AEBV?$map@V?$basic_string@DU?$char_traits@D@std@@V?$allocator@D@2@@std@@V12@U?$less@V?$basic_string@DU?$char_traits@D@std@@V?$allocator@D@2@@std@@@2@V?$allocator@U?$pair@$$CBV?$basic_string@DU?$char_traits@D@std@@V?$allocator@D@2@@std@@V12@@std@@@2@@std@@@Z
	??1BrowserIdcAuthPlugin@IamSupport@Redshift@@UEAA@XZ
	?BuildOidcHostUrl@BrowserIdcAuthPlugin@IamSupport@Redshift@@QEAA?AV?$basic_string@DU?$char_traits@D@std@@V?$allocator@D@2@@std@@AEBV45@@Z
	?getSqlTablesColName@RsMetadataAPIHelper@@SAPEBDH@Z
	?getSqlColumnsColName@RsMetadataAPIHelper@@SAPEBDH@Z
	?getSqlPrimaryKeysColName@RsMetadataAPIHelper@@SAPEBDH@Z
	?getSqlForeignKeysColName@RsMetadataAPIHelper@@SAPEBDH@Z
	?getSqlSpecialColumnsColName@RsMetadataAPIHelper@@SAPEBDH@Z
	?getSqlColumnPrivilegesColName@RsMetadataAPIHelper@@SAPEBDH@Z
	?getSqlTablePrivilegesColName@RsMetadataAPIHelper@@SAPEBDH@Z
	?getSqlProceduresColName@RsMetadataAPIHelper@@SAPEBDH@Z
	?getSqlProcedureColumnsColName@RsMetadataAPIHelper@@SAPEBDH@Z
	?sqlTablesPostProcessing@RsMetadataAPIPostProcessor@@SAFPEAXV?$basic_string@DU?$char_traits@D@std@@V?$allocator@D@2@@std@@AEBV?$vector@USHOWTABLESResult@@V?$allocator@USHOWTABLESResult@@@std@@@3@@Z
	?sqlColumnsPostProcessing@RsMetadataAPIPostProcessor@@SAFPEAXAEBV?$vector@USHOWCOLUMNSResult@@V?$allocator@USHOWCOLUMNSResult@@@std@@@std@@@Z
	?sqlPrimaryKeysPostProcessing@RsMetadataAPIPostProcessor@@SAFPEAXAEBV?$vector@USHOWCONSTRAINTSPRIMARYKEYSResult@@V?$allocator@USHOWCONSTRAINTSPRIMARYKEYSResult@@@std@@@std@@@Z
	?sqlForeignKeysPostProcessing@RsMetadataAPIPostProcessor@@SAFPEAXAEBV?$vector@USHOWCONSTRAINTSFOREIGNKEYSResult@@V?$allocator@USHOWCONSTRAINTSFOREIGNKEYSResult@@@std@@@std@@@Z
	?sqlSpecialColumnsPostProcessing@RsMetadataAPIPostProcessor@@SAFPEAXAEBV?$vector@USHOWCOLUMNSResult@@V?$allocator@USHOWCOLUMNSResult@@@std@@@std@@G@Z
	?sqlTablePrivilegesPostProcessing@RsMetadataAPIPostProcessor@@SAFPEAXAEBV?$vector@USHOWGRANTSTABLEResult@@V?$allocator@USHOWGRANTSTABLEResult@@@std@@@std@@@Z
	?sqlColumnPrivilegesPostProcessing@RsMetadataAPIPostProcessor@@SAFPEAXAEBV?$vector@USHOWGRANTSCOLUMNResult@@V?$allocator@USHOWGRANTSCOLUMNResult@@@std@@@std@@@Z
	?sqlProceduresPostProcessing@RsMetadataAPIPostProcessor@@SAFPEAXAEBV?$vector@USHOWPROCEDURESFUNCTIONSResult@@V?$allocator@USHOWPROCEDURESFUNCTIONSResult@@@std@@@std@@@Z
	?sqlProcedureColumnsPostProcessing@RsMetadataAPIPostProcessor@@SAFPEAXAEBV?$vector@USHOWCOLUMNSResult@@V?$allocator@USHOWCOLUMNSResult@@@std@@@std@@@Z
	?getProcedureFunctionColumnType@RsMetadataAPIHelper@@SAHAEBV?$basic_string@DU?$char_traits@D@std@@V?$allocator@D@2@@std@@@Z
	?patternMatch@RsMetadataAPIHelper@@SA_NAEBV?$basic_string@DU?$char_traits@D@std@@V?$allocator@D@2@@std@@0@Z
	rs_strncpy_safe
	RsFree
	PQntuples
	PQnfields
	PQfname
	PQgetvalue
	getRsLoglevel
	copyWBinaryDataBigLen
	copySqlwForClient
	convertWCharParamWithTruncCheck
	?convertToUTF8@IAMUtils@IamSupport@Redshift@@SA?AV?$basic_string@DU?$char_traits@D@std@@V?$allocator@D@2@@std@@V?$basic_string@_WU?$char_traits@_W@std@@V?$allocator@_W@2@@5@@Z
	?convertFromUTF8@IAMUtils@IamSupport@Redshift@@SA?AV?$basic_string@_WU?$char_traits@_W@std@@V?$allocator@_W@2@@std@@V?$basic_string@DU?$char_traits@D@std@@V?$allocator@D@2@@5@@Z
	?traceWStrValWithSmallLen@RsTrace@@IEAAXPEBDPEA_WF@Z
	?traceWStrValWithLargeLen@RsTrace@@IEAAXPEBDPEA_WJ@Z
	?tracePasswordConnectStringW@RsTrace@@IEAAXPEBDPEA_WF@Z
	?traceArg@RsTrace@@IEAAXPEBDZZ
	?isIODBC@@YA_NXZ
	?checkReplaceParamMarkerAndODBCEscapeClause@ODBCEscapeClauseProcessor@@SAPEAEPEAVRS_STMT_INFO@@PEAD_KPEAU_RS_STR_BUF@@H@Z
	?parseFunctionArguments@ODBCEscapeClauseProcessor@@SA_NAEBV?$basic_string@DU?$char_traits@D@std@@V?$allocator@D@2@@std@@AEA_KAEAV?$vector@V?$basic_string@DU?$char_traits@D@std@@V?$allocator@D@2@@std@@V?$allocator@V?$basic_string@DU?$char_traits@D@std@@V?$allocator@D@2@@std@@@2@@3@PEAVRS_STMT_INFO@@HAEAHH@Z
	?lookupSqlType@ODBCEscapeClauseProcessor@@SAPEBDAEBV?$basic_string@DU?$char_traits@D@std@@V?$allocator@D@2@@std@@@Z
	?lookupIntervalToken@ODBCEscapeClauseProcessor@@SAPEBDAEBV?$basic_string@DU?$char_traits@D@std@@V?$allocator@D@2@@std@@@Z
